; Function Attrs: mustprogress nofree norecurse nosync nounwind willreturn memory(argmem: readwrite) uwtable
define noundef ptr @_ZNK32pxrInternal_v0_24__pxrReserved__10GfMatrix2f3GetEPA2_f(ptr noundef nonnull readonly align 4 captures(none) dereferenceable(16) %0, ptr noundef returned writeonly initializes((0, 16)) %1) local_unnamed_addr #2 align 2 {
  %3 = load float, ptr %0, align 4
  store float %3, ptr %1, align 4
  %4 = getelementptr inbounds nuw i8, ptr %0, i64 4
  %5 = load float, ptr %4, align 4
  %6 = getelementptr inbounds nuw i8, ptr %1, i64 4
  store float %5, ptr %6, align 4
  %7 = getelementptr inbounds nuw i8, ptr %0, i64 8
  %8 = load float, ptr %7, align 4
  %9 = getelementptr inbounds nuw i8, ptr %1, i64 8
  store float %8, ptr %9, align 4
  %10 = getelementptr inbounds nuw i8, ptr %0, i64 12
  %11 = load float, ptr %10, align 4
  %12 = getelementptr inbounds nuw i8, ptr %1, i64 12
  store float %11, ptr %12, align 4
  ret ptr %1
}